target datalayout = "e-m:e-p270:32:32-p271:32:32-p272:64:64-i64:64-i128:128-f80:128-n8:16:32:64-S128"
target triple = "x86_64-pc-linux-gnu"

%struct.pmix_gds_globals_t = type { %struct.pmix_list_t, i8, i8, ptr }
%struct.pmix_list_t = type { %struct.pmix_object_t, %struct.pmix_list_item_t, i64 }
%struct.pmix_object_t = type { %union.pthread_mutex_t, ptr, i32, %struct.pmix_tma }
%union.pthread_mutex_t = type { %struct.__pthread_mutex_s }
%struct.__pthread_mutex_s = type { i32, i32, i32, i32, i32, i16, i16, %struct.__pthread_internal_list }
%struct.__pthread_internal_list = type { ptr, ptr }
%struct.pmix_tma = type { ptr, ptr, ptr, ptr, ptr, ptr, ptr, ptr }
%struct.pmix_list_item_t = type { %struct.pmix_object_t, ptr, ptr, i32 }
%struct.pmix_gds_base_active_module_t = type { %struct.pmix_list_item_t, i32, ptr, ptr }
%struct.pmix_gds_base_module_t = type { ptr, i8, ptr, ptr, ptr, ptr, ptr, ptr, ptr, ptr, ptr, ptr, ptr, ptr, ptr, ptr, ptr, ptr, ptr }

@pmix_gds_globals = external global %struct.pmix_gds_globals_t, align 8

; Function Attrs: nounwind uwtable
define ptr @pmix_gds_base_assign_module(ptr noundef %0, i64 noundef %1) #0 {
  %3 = alloca ptr, align 8
  %4 = alloca ptr, align 8
  %5 = alloca i64, align 8
  %6 = alloca ptr, align 8
  %7 = alloca ptr, align 8
  %8 = alloca i32, align 4
  %9 = alloca i32, align 4
  %10 = alloca i32, align 4
  store ptr %0, ptr %4, align 8, !tbaa !21
  store i64 %1, ptr %5, align 8, !tbaa !23
  call void @llvm.lifetime.start.p0(i64 8, ptr %6) #7
  call void @llvm.lifetime.start.p0(i64 8, ptr %7) #7
  store ptr null, ptr %7, align 8, !tbaa !24
  call void @llvm.lifetime.start.p0(i64 4, ptr %8) #7
  call void @llvm.lifetime.start.p0(i64 4, ptr %9) #7
  store i32 -1, ptr %9, align 4, !tbaa !25
  %11 = load i8, ptr getelementptr inbounds nuw (%struct.pmix_gds_globals_t, ptr @pmix_gds_globals, i32 0, i32 1), align 8, !tbaa !3, !range !18, !noundef !19
  %12 = trunc i8 %11 to i1
  br i1 %12, label %14, label %13

13:                                               ; preds = %2
  store ptr null, ptr %3, align 8
  store i32 1, ptr %10, align 4
  br label %61

14:                                               ; preds = %2
  %15 = load ptr, ptr getelementptr inbounds nuw (%struct.pmix_list_item_t, ptr getelementptr inbounds nuw (%struct.pmix_list_t, ptr @pmix_gds_globals, i32 0, i32 1), i32 0, i32 1), align 8, !tbaa !26
  store ptr %15, ptr %6, align 8, !tbaa !27
  br label %16

16:                                               ; preds = %55, %14
  %17 = load ptr, ptr %6, align 8, !tbaa !27
  %18 = icmp ne ptr %17, getelementptr inbounds nuw (%struct.pmix_list_t, ptr @pmix_gds_globals, i32 0, i32 1)
  br i1 %18, label %19, label %59

19:                                               ; preds = %16
  %20 = load ptr, ptr %6, align 8, !tbaa !27
  %21 = getelementptr inbounds nuw %struct.pmix_gds_base_active_module_t, ptr %20, i32 0, i32 2
  %22 = load ptr, ptr %21, align 8, !tbaa !29
  %23 = getelementptr inbounds nuw %struct.pmix_gds_base_module_t, ptr %22, i32 0, i32 4
  %24 = load ptr, ptr %23, align 8, !tbaa !32
  %25 = icmp eq ptr null, %24
  br i1 %25, label %26, label %27

26:                                               ; preds = %19
  br label %55

27:                                               ; preds = %19
  %28 = load ptr, ptr %6, align 8, !tbaa !27
  %29 = getelementptr inbounds nuw %struct.pmix_gds_base_active_module_t, ptr %28, i32 0, i32 2
  %30 = load ptr, ptr %29, align 8, !tbaa !29
  %31 = getelementptr inbounds nuw %struct.pmix_gds_base_module_t, ptr %30, i32 0, i32 4
  %32 = load ptr, ptr %31, align 8, !tbaa !32
  %33 = load ptr, ptr %4, align 8, !tbaa !21
  %34 = load i64, ptr %5, align 8, !tbaa !23
  %35 = call i32 %32(ptr noundef %33, i64 noundef %34, ptr noundef %8)
  %36 = icmp eq i32 0, %35
  br i1 %36, label %37, label %54

37:                                               ; preds = %27
  %38 = load i32, ptr %8, align 4, !tbaa !25
  %39 = icmp slt i32 %38, 0
  br i1 %39, label %40, label %44

40:                                               ; preds = %37
  %41 = load ptr, ptr %6, align 8, !tbaa !27
  %42 = getelementptr inbounds nuw %struct.pmix_gds_base_active_module_t, ptr %41, i32 0, i32 1
  %43 = load i32, ptr %42, align 8, !tbaa !34
  store i32 %43, ptr %8, align 4, !tbaa !25
  br label %44

44:                                               ; preds = %40, %37
  %45 = load i32, ptr %9, align 4, !tbaa !25
  %46 = load i32, ptr %8, align 4, !tbaa !25
  %47 = icmp slt i32 %45, %46
  br i1 %47, label %48, label %53

48:                                               ; preds = %44
  %49 = load ptr, ptr %6, align 8, !tbaa !27
  %50 = getelementptr inbounds nuw %struct.pmix_gds_base_active_module_t, ptr %49, i32 0, i32 2
  %51 = load ptr, ptr %50, align 8, !tbaa !29
  store ptr %51, ptr %7, align 8, !tbaa !24
  %52 = load i32, ptr %8, align 4, !tbaa !25
  store i32 %52, ptr %9, align 4, !tbaa !25
  br label %53

53:                                               ; preds = %48, %44
  br label %54

54:                                               ; preds = %53, %27
  br label %55

55:                                               ; preds = %54, %26
  %56 = load ptr, ptr %6, align 8, !tbaa !27
  %57 = getelementptr inbounds nuw %struct.pmix_list_item_t, ptr %56, i32 0, i32 1
  %58 = load ptr, ptr %57, align 8, !tbaa !35
  store ptr %58, ptr %6, align 8, !tbaa !27
  br label %16, !llvm.loop !36

59:                                               ; preds = %16
  %60 = load ptr, ptr %7, align 8, !tbaa !24
  store ptr %60, ptr %3, align 8
  store i32 1, ptr %10, align 4
  br label %61

61:                                               ; preds = %59, %13
  call void @llvm.lifetime.end.p0(i64 4, ptr %9) #7
  call void @llvm.lifetime.end.p0(i64 4, ptr %8) #7
  call void @llvm.lifetime.end.p0(i64 8, ptr %7) #7
  call void @llvm.lifetime.end.p0(i64 8, ptr %6) #7
  %62 = load ptr, ptr %3, align 8
  ret ptr %62
}