; Function Attrs: nounwind uwtable
define ptr @pmix_gds_base_assign_module(ptr noundef %0, i64 noundef %1) local_unnamed_addr #2 {
  %3 = alloca i32, align 4
  call void @llvm.lifetime.start.p0(i64 4, ptr nonnull %3) #8
  %4 = load i8, ptr getelementptr inbounds nuw (i8, ptr @pmix_gds_globals, i64 272), align 8, !tbaa !3, !range !18, !noundef !19
  %5 = trunc nuw i8 %4 to i1
  %.01216 = load ptr, ptr getelementptr inbounds nuw (i8, ptr @pmix_gds_globals, i64 240), align 8
  %.not17 = icmp ne ptr %.01216, getelementptr inbounds nuw (i8, ptr @pmix_gds_globals, i64 120)
  %or.cond.not = select i1 %5, i1 %.not17, i1 false
  br i1 %or.cond.not, label %.lr.ph, label %.loopexit

.lr.ph:                                           ; preds = %2, %25
  %.01220 = phi ptr [ %.012, %25 ], [ %.01216, %2 ]
  %.019 = phi i32 [ %.1, %25 ], [ -1, %2 ]
  %.01018 = phi ptr [ %.111, %25 ], [ null, %2 ]
  %6 = getelementptr inbounds nuw i8, ptr %.01220, i64 152
  %7 = load ptr, ptr %6, align 8, !tbaa !21
  %8 = getelementptr inbounds nuw i8, ptr %7, i64 32
  %9 = load ptr, ptr %8, align 8, !tbaa !24
  %10 = icmp eq ptr %9, null
  br i1 %10, label %25, label %11

11:                                               ; preds = %.lr.ph
  %12 = call i32 %9(ptr noundef %0, i64 noundef %1, ptr noundef nonnull %3) #8
  %13 = icmp eq i32 %12, 0
  br i1 %13, label %14, label %25

14:                                               ; preds = %11
  %15 = load i32, ptr %3, align 4, !tbaa !26
  %16 = icmp slt i32 %15, 0
  br i1 %16, label %17, label %20

17:                                               ; preds = %14
  %18 = getelementptr inbounds nuw i8, ptr %.01220, i64 144
  %19 = load i32, ptr %18, align 8, !tbaa !27
  store i32 %19, ptr %3, align 4, !tbaa !26
  br label %20

20:                                               ; preds = %17, %14
  %21 = phi i32 [ %19, %17 ], [ %15, %14 ]
  %22 = icmp slt i32 %.019, %21
  br i1 %22, label %23, label %25

23:                                               ; preds = %20
  %24 = load ptr, ptr %6, align 8, !tbaa !21
  br label %25

25:                                               ; preds = %11, %23, %20, %.lr.ph
  %.111 = phi ptr [ %.01018, %.lr.ph ], [ %24, %23 ], [ %.01018, %20 ], [ %.01018, %11 ]
  %.1 = phi i32 [ %.019, %.lr.ph ], [ %21, %23 ], [ %.019, %20 ], [ %.019, %11 ]
  %26 = getelementptr inbounds nuw i8, ptr %.01220, i64 120
  %.012 = load ptr, ptr %26, align 8, !tbaa !28
  %.not = icmp eq ptr %.012, getelementptr inbounds nuw (i8, ptr @pmix_gds_globals, i64 120)
  br i1 %.not, label %.loopexit, label %.lr.ph, !llvm.loop !29

.loopexit:                                        ; preds = %25, %2
  %.013 = phi ptr [ null, %2 ], [ %.111, %25 ]
  call void @llvm.lifetime.end.p0(i64 4, ptr nonnull %3) #8
  ret ptr %.013
}